; Function Attrs: mustprogress uwtable
define hidden void @_ZN3ade27ExecutionEngineSetupContext18addPrePassCallbackESt8functionIFvRKNS_15ExecutionEngine8PassDescERKNS_6passes11PassContextEEE(ptr noundef nonnull readonly align 8 captures(none) dereferenceable(8) %0, ptr noundef captures(none) %1) local_unnamed_addr #0 align 2 personality ptr @__gxx_personality_v0 {
  %3 = alloca %"class.std::function", align 8
  %4 = load ptr, ptr %0, align 8, !tbaa !165
  %5 = getelementptr inbounds nuw i8, ptr %3, i64 24
  %6 = getelementptr inbounds nuw i8, ptr %1, i64 24
  call void @llvm.memset.p0.i64(ptr noundef nonnull align 8 dereferenceable(32) %3, i8 0, i64 24, i1 false)
  %7 = load ptr, ptr %6, align 8, !tbaa !69
  store ptr %7, ptr %5, align 8, !tbaa !69
  %8 = getelementptr inbounds nuw i8, ptr %1, i64 16
  %9 = load ptr, ptr %8, align 8, !tbaa !48
  %.not.i.i.not.i = icmp eq ptr %9, null
  br i1 %.not.i.i.not.i, label %_ZNSt8functionIFvRKN3ade15ExecutionEngine8PassDescERKNS0_6passes11PassContextEEEC2EOSA_.exit, label %10

10:                                               ; preds = %2
  %11 = getelementptr inbounds nuw i8, ptr %3, i64 16
  call void @llvm.memcpy.p0.p0.i64(ptr noundef nonnull align 8 dereferenceable(32) %3, ptr noundef nonnull align 8 dereferenceable(32) %1, i64 16, i1 false), !tbaa.struct !71
  store ptr %9, ptr %11, align 8, !tbaa !48
  tail call void @llvm.memset.p0.i64(ptr noundef nonnull align 8 dereferenceable(16) %8, i8 0, i64 16, i1 false)
  br label %_ZNSt8functionIFvRKN3ade15ExecutionEngine8PassDescERKNS0_6passes11PassContextEEEC2EOSA_.exit

_ZNSt8functionIFvRKN3ade15ExecutionEngine8PassDescERKNS0_6passes11PassContextEEEC2EOSA_.exit: ; preds = %2, %10
  %12 = getelementptr inbounds nuw i8, ptr %4, i64 32
  %13 = load ptr, ptr %12, align 8, !tbaa !47
  %14 = getelementptr inbounds nuw i8, ptr %4, i64 40
  %15 = load ptr, ptr %14, align 8, !tbaa !68
  %.not.i.i = icmp eq ptr %13, %15
  br i1 %.not.i.i, label %22, label %16

16:                                               ; preds = %_ZNSt8functionIFvRKN3ade15ExecutionEngine8PassDescERKNS0_6passes11PassContextEEEC2EOSA_.exit
  %17 = getelementptr inbounds nuw i8, ptr %13, i64 24
  tail call void @llvm.memset.p0.i64(ptr noundef nonnull align 8 dereferenceable(32) %13, i8 0, i64 24, i1 false)
  store ptr %7, ptr %17, align 8, !tbaa !69
  %.not.i.i.not.i.i.i.i.i = icmp eq ptr %9, null
  br i1 %.not.i.i.not.i.i.i.i.i, label %_ZN3ade15ExecutionEngine18addPrePassCallbackESt8functionIFvRKNS0_8PassDescERKNS_6passes11PassContextEEE.exit.thread, label %18

18:                                               ; preds = %16
  %19 = getelementptr inbounds nuw i8, ptr %13, i64 16
  call void @llvm.memcpy.p0.p0.i64(ptr noundef nonnull align 8 dereferenceable(32) %13, ptr noundef nonnull align 8 dereferenceable(32) %3, i64 16, i1 false), !tbaa.struct !71
  store ptr %9, ptr %19, align 8, !tbaa !48
  br label %_ZN3ade15ExecutionEngine18addPrePassCallbackESt8functionIFvRKNS0_8PassDescERKNS_6passes11PassContextEEE.exit.thread

_ZN3ade15ExecutionEngine18addPrePassCallbackESt8functionIFvRKNS0_8PassDescERKNS_6passes11PassContextEEE.exit.thread: ; preds = %16, %18
  %20 = load ptr, ptr %12, align 8, !tbaa !47
  %21 = getelementptr inbounds nuw i8, ptr %20, i64 32
  store ptr %21, ptr %12, align 8, !tbaa !47
  br label %_ZNSt14_Function_baseD2Ev.exit

22:                                               ; preds = %_ZNSt8functionIFvRKN3ade15ExecutionEngine8PassDescERKNS0_6passes11PassContextEEEC2EOSA_.exit
  %23 = getelementptr inbounds nuw i8, ptr %4, i64 24
  invoke void @_ZNSt6vectorISt8functionIFvRKN3ade15ExecutionEngine8PassDescERKNS1_6passes11PassContextEEESaISB_EE17_M_realloc_insertIJSB_EEEvN9__gnu_cxx17__normal_iteratorIPSB_SD_EEDpOT_(ptr noundef nonnull align 8 dereferenceable(24) %23, ptr %13, ptr noundef nonnull align 8 dereferenceable(32) %3)
          to label %_ZN3ade15ExecutionEngine18addPrePassCallbackESt8functionIFvRKNS0_8PassDescERKNS_6passes11PassContextEEE.exit unwind label %29

_ZN3ade15ExecutionEngine18addPrePassCallbackESt8functionIFvRKNS0_8PassDescERKNS_6passes11PassContextEEE.exit: ; preds = %22
  %.phi.trans.insert = getelementptr inbounds nuw i8, ptr %3, i64 16
  %.pre = load ptr, ptr %.phi.trans.insert, align 8, !tbaa !48
  %.not.i = icmp eq ptr %.pre, null
  br i1 %.not.i, label %_ZNSt14_Function_baseD2Ev.exit, label %24

24:                                               ; preds = %_ZN3ade15ExecutionEngine18addPrePassCallbackESt8functionIFvRKNS0_8PassDescERKNS_6passes11PassContextEEE.exit
  %25 = invoke noundef zeroext i1 %.pre(ptr noundef nonnull align 8 dereferenceable(32) %3, ptr noundef nonnull align 8 dereferenceable(32) %3, i32 noundef 3)
          to label %_ZNSt14_Function_baseD2Ev.exit unwind label %26

26:                                               ; preds = %24
  %27 = landingpad { ptr, i32 }
          catch ptr null
  %28 = extractvalue { ptr, i32 } %27, 0
  call void @__clang_call_terminate(ptr %28) #27
  unreachable

_ZNSt14_Function_baseD2Ev.exit:                   ; preds = %_ZN3ade15ExecutionEngine18addPrePassCallbackESt8functionIFvRKNS0_8PassDescERKNS_6passes11PassContextEEE.exit.thread, %_ZN3ade15ExecutionEngine18addPrePassCallbackESt8functionIFvRKNS0_8PassDescERKNS_6passes11PassContextEEE.exit, %24
  ret void

29:                                               ; preds = %22
  %30 = landingpad { ptr, i32 }
          cleanup
  %31 = getelementptr inbounds nuw i8, ptr %3, i64 16
  %32 = load ptr, ptr %31, align 8, !tbaa !48
  %.not.i2 = icmp eq ptr %32, null
  br i1 %.not.i2, label %_ZNSt14_Function_baseD2Ev.exit3, label %33

33:                                               ; preds = %29
  %34 = invoke noundef zeroext i1 %32(ptr noundef nonnull align 8 dereferenceable(32) %3, ptr noundef nonnull align 8 dereferenceable(32) %3, i32 noundef 3)
          to label %_ZNSt14_Function_baseD2Ev.exit3 unwind label %35

35:                                               ; preds = %33
  %36 = landingpad { ptr, i32 }
          catch ptr null
  %37 = extractvalue { ptr, i32 } %36, 0
  call void @__clang_call_terminate(ptr %37) #27
  unreachable

_ZNSt14_Function_baseD2Ev.exit3:                  ; preds = %29, %33
  resume { ptr, i32 } %30
}